; Function Attrs: null_pointer_is_valid sspstrong uwtable
define internal fastcc void @Dtd_Parse_ensure_buffer_stack(ptr noundef captures(none) %0) unnamed_addr #0 {
  %2 = getelementptr inbounds nuw i8, ptr %0, i64 40
  %3 = load ptr, ptr %2, align 8
  %.not = icmp eq ptr %3, null
  br i1 %.not, label %4, label %10

4:                                                ; preds = %1
  %5 = tail call noalias dereferenceable_or_null(8) ptr @malloc(i64 noundef 8) #28
  store ptr %5, ptr %2, align 8
  %.not26 = icmp eq ptr %5, null
  br i1 %.not26, label %6, label %7

6:                                                ; preds = %4
  tail call fastcc void @yy_fatal_error(ptr noundef nonnull @.str.19) #25
  unreachable

7:                                                ; preds = %4
  store i64 0, ptr %5, align 1
  %8 = getelementptr inbounds nuw i8, ptr %0, i64 32
  store i64 1, ptr %8, align 8
  %9 = getelementptr inbounds nuw i8, ptr %0, i64 24
  store i64 0, ptr %9, align 8
  br label %26

10:                                               ; preds = %1
  %11 = getelementptr inbounds nuw i8, ptr %0, i64 24
  %12 = load i64, ptr %11, align 8
  %13 = getelementptr inbounds nuw i8, ptr %0, i64 32
  %14 = load i64, ptr %13, align 8
  %15 = add i64 %14, -1
  %.not27 = icmp ult i64 %12, %15
  br i1 %.not27, label %26, label %16

16:                                               ; preds = %10
  %17 = add i64 %14, 8
  %18 = shl i64 %17, 3
  %19 = tail call ptr @realloc(ptr noundef nonnull %3, i64 noundef %18) #26
  store ptr %19, ptr %2, align 8
  %.not28 = icmp eq ptr %19, null
  br i1 %.not28, label %20, label %21

20:                                               ; preds = %16
  tail call fastcc void @yy_fatal_error(ptr noundef nonnull @.str.19) #25
  unreachable

21:                                               ; preds = %16
  %22 = load i64, ptr %13, align 8
  %.idx = shl i64 %22, 3
  %23 = getelementptr ptr, ptr %19, i64 %22
  %24 = tail call i64 @llvm.usub.sat.i64(i64 %18, i64 %.idx)
  %25 = tail call ptr @__memset_chk(ptr noundef %23, i32 noundef 0, i64 noundef 64, i64 noundef %24) #27
  store i64 %17, ptr %13, align 8
  br label %26

26:                                               ; preds = %10, %21, %7
  ret void
}